; Function Attrs: mustprogress uwtable
define void @_ZN6google8protobuf6Method8CopyFromERKS1_(ptr noundef nonnull align 8 dereferenceable(80) %this, ptr noundef nonnull align 8 dereferenceable(80) %from) local_unnamed_addr #3 align 2 personality ptr @__gxx_personality_v0 {
entry:
  %cmp = icmp eq ptr %from, %this
  br i1 %cmp, label %return, label %if.end

if.end:                                           ; preds = %entry
  %current_size_.i.i.i = getelementptr inbounds i8, ptr %this, i64 24
  %0 = load i32, ptr %current_size_.i.i.i, align 8
  %cmp.i.i.i = icmp sgt i32 %0, 0
  br i1 %cmp.i.i.i, label %if.then.i.i.i, label %_ZN6google8protobuf16RepeatedPtrFieldINS0_6OptionEE5ClearEv.exit.i

if.then.i.i.i:                                    ; preds = %if.end
  %1 = getelementptr inbounds i8, ptr %this, i64 16
  %2 = load ptr, ptr %1, align 8
  %3 = ptrtoint ptr %2 to i64
  %and.i.i.i.i.i.i = and i64 %3, 1
  %cmp.i.i.i.i.i.i = icmp eq i64 %and.i.i.i.i.i.i, 0
  %sub.i.i.i.i.i.i = add i64 %3, -1
  %4 = inttoptr i64 %sub.i.i.i.i.i.i to ptr
  %elements.i.i.i.i.i = getelementptr inbounds i8, ptr %4, i64 8
  %cond.i.i.i.i.i = select i1 %cmp.i.i.i.i.i.i, ptr %1, ptr %elements.i.i.i.i.i
  %wide.trip.count.i.i.i.i = zext nneg i32 %0 to i64
  br label %do.body.i.i.i.i

do.body.i.i.i.i:                                  ; preds = %do.body.i.i.i.i, %if.then.i.i.i
  %indvars.iv.i.i.i.i = phi i64 [ %indvars.iv.next.i.i.i.i, %do.body.i.i.i.i ], [ 0, %if.then.i.i.i ]
  %indvars.iv.next.i.i.i.i = add nuw nsw i64 %indvars.iv.i.i.i.i, 1
  %arrayidx.i.i.i.i = getelementptr inbounds ptr, ptr %cond.i.i.i.i.i, i64 %indvars.iv.i.i.i.i
  %5 = load ptr, ptr %arrayidx.i.i.i.i, align 8
  %vtable.i.i.i.i.i = load ptr, ptr %5, align 8
  %vfn.i.i.i.i.i = getelementptr inbounds i8, ptr %vtable.i.i.i.i.i, i64 24
  %6 = load ptr, ptr %vfn.i.i.i.i.i, align 8
  tail call void %6(ptr noundef nonnull align 8 dereferenceable(16) %5)
  %exitcond.not.i.i.i.i = icmp eq i64 %indvars.iv.next.i.i.i.i, %wide.trip.count.i.i.i.i
  br i1 %exitcond.not.i.i.i.i, label %_ZN6google8protobuf8internal20RepeatedPtrFieldBase13ClearNonEmptyINS1_18GenericTypeHandlerINS0_11MessageLiteEEEEEvv.exit.i.i.i, label %do.body.i.i.i.i, !llvm.loop !4

_ZN6google8protobuf8internal20RepeatedPtrFieldBase13ClearNonEmptyINS1_18GenericTypeHandlerINS0_11MessageLiteEEEEEvv.exit.i.i.i: ; preds = %do.body.i.i.i.i
  store i32 0, ptr %current_size_.i.i.i, align 8
  br label %_ZN6google8protobuf16RepeatedPtrFieldINS0_6OptionEE5ClearEv.exit.i

_ZN6google8protobuf16RepeatedPtrFieldINS0_6OptionEE5ClearEv.exit.i: ; preds = %_ZN6google8protobuf8internal20RepeatedPtrFieldBase13ClearNonEmptyINS1_18GenericTypeHandlerINS0_11MessageLiteEEEEEvv.exit.i.i.i, %if.end
  %name_.i = getelementptr inbounds i8, ptr %this, i64 40
  tail call void @_ZN6google8protobuf8internal14ArenaStringPtr12ClearToEmptyEv(ptr noundef nonnull align 8 dereferenceable(8) %name_.i)
  %request_type_url_.i = getelementptr inbounds i8, ptr %this, i64 48
  tail call void @_ZN6google8protobuf8internal14ArenaStringPtr12ClearToEmptyEv(ptr noundef nonnull align 8 dereferenceable(8) %request_type_url_.i)
  %response_type_url_.i = getelementptr inbounds i8, ptr %this, i64 56
  tail call void @_ZN6google8protobuf8internal14ArenaStringPtr12ClearToEmptyEv(ptr noundef nonnull align 8 dereferenceable(8) %response_type_url_.i)
  %request_streaming_.i = getelementptr inbounds i8, ptr %this, i64 64
  store i64 0, ptr %request_streaming_.i, align 8
  %_internal_metadata_.i = getelementptr inbounds i8, ptr %this, i64 8
  %7 = load i64, ptr %_internal_metadata_.i, align 8
  %and.i.i = and i64 %7, 1
  %tobool.i.not.i = icmp eq i64 %and.i.i, 0
  br i1 %tobool.i.not.i, label %_ZN6google8protobuf6Method5ClearEv.exit, label %if.then.i.i

if.then.i.i:                                      ; preds = %_ZN6google8protobuf16RepeatedPtrFieldINS0_6OptionEE5ClearEv.exit.i
  tail call void @_ZN6google8protobuf8internal16InternalMetadata7DoClearINS0_15UnknownFieldSetEEEvv(ptr noundef nonnull align 8 dereferenceable(8) %_internal_metadata_.i)
  br label %_ZN6google8protobuf6Method5ClearEv.exit

_ZN6google8protobuf6Method5ClearEv.exit:          ; preds = %_ZN6google8protobuf16RepeatedPtrFieldINS0_6OptionEE5ClearEv.exit.i, %if.then.i.i
  tail call void @_ZN6google8protobuf6Method9MergeImplERNS0_11MessageLiteERKS2_(ptr noundef nonnull align 8 dereferenceable(16) %this, ptr noundef nonnull align 8 dereferenceable(16) %from)
  br label %return

return:                                           ; preds = %entry, %_ZN6google8protobuf6Method5ClearEv.exit
  ret void
}